target datalayout = "e-m:e-p270:32:32-p271:32:32-p272:64:64-i64:64-i128:128-f80:128-n8:16:32:64-S128"
target triple = "x86_64-pc-linux-gnu"

%struct.SurfaceDataRasInfo = type { %struct.SurfaceDataBounds, ptr, i32, i32, i32, i32, ptr, ptr, ptr, ptr, ptr, ptr, i32, %union.anon.0 }
%struct.SurfaceDataBounds = type { i32, i32, i32, i32 }
%union.anon.0 = type { ptr, [56 x i8] }
%struct.SpanIteratorFuncs = type { ptr, ptr, ptr, ptr, ptr, ptr }
%struct._CompositeInfo = type { i32, %union.anon.1, i32 }
%union.anon.1 = type { float }

; Function Attrs: nounwind uwtable
define hidden void @AnyByteXorSpans(ptr noundef %0, ptr noundef %1, ptr noundef %2, i32 noundef %3, ptr noundef %4, ptr noundef %5) #0 {
  %7 = alloca ptr, align 8
  %8 = alloca ptr, align 8
  %9 = alloca ptr, align 8
  %10 = alloca i32, align 4
  %11 = alloca ptr, align 8
  %12 = alloca ptr, align 8
  %13 = alloca ptr, align 8
  %14 = alloca i32, align 4
  %15 = alloca i32, align 4
  %16 = alloca i32, align 4
  %17 = alloca [4 x i32], align 16
  %18 = alloca i32, align 4
  %19 = alloca i32, align 4
  %20 = alloca i32, align 4
  %21 = alloca i32, align 4
  %22 = alloca ptr, align 8
  %23 = alloca i32, align 4
  store ptr %0, ptr %7, align 8
  store ptr %1, ptr %8, align 8
  store ptr %2, ptr %9, align 8
  store i32 %3, ptr %10, align 4
  store ptr %4, ptr %11, align 8
  store ptr %5, ptr %12, align 8
  %24 = load ptr, ptr %7, align 8
  %25 = getelementptr inbounds %struct.SurfaceDataRasInfo, ptr %24, i32 0, i32 1
  %26 = load ptr, ptr %25, align 8
  store ptr %26, ptr %13, align 8
  %27 = load ptr, ptr %12, align 8
  %28 = getelementptr inbounds %struct._CompositeInfo, ptr %27, i32 0, i32 1
  %29 = load i32, ptr %28, align 4
  store i32 %29, ptr %14, align 4
  %30 = load ptr, ptr %12, align 8
  %31 = getelementptr inbounds %struct._CompositeInfo, ptr %30, i32 0, i32 2
  %32 = load i32, ptr %31, align 4
  store i32 %32, ptr %15, align 4
  %33 = load ptr, ptr %7, align 8
  %34 = getelementptr inbounds %struct.SurfaceDataRasInfo, ptr %33, i32 0, i32 4
  %35 = load i32, ptr %34, align 8
  store i32 %35, ptr %16, align 4
  br label %36

36:                                               ; preds = %104, %6
  %37 = load ptr, ptr %8, align 8
  %38 = getelementptr inbounds %struct.SpanIteratorFuncs, ptr %37, i32 0, i32 4
  %39 = load ptr, ptr %38, align 8
  %40 = load ptr, ptr %9, align 8
  %41 = getelementptr inbounds [4 x i32], ptr %17, i64 0, i64 0
  %42 = call zeroext i8 %39(ptr noundef %40, ptr noundef %41)
  %43 = icmp ne i8 %42, 0
  br i1 %43, label %44, label %105

44:                                               ; preds = %36
  %45 = getelementptr inbounds [4 x i32], ptr %17, i64 0, i64 0
  %46 = load i32, ptr %45, align 16
  store i32 %46, ptr %18, align 4
  %47 = getelementptr inbounds [4 x i32], ptr %17, i64 0, i64 1
  %48 = load i32, ptr %47, align 4
  store i32 %48, ptr %19, align 4
  %49 = getelementptr inbounds [4 x i32], ptr %17, i64 0, i64 2
  %50 = load i32, ptr %49, align 8
  %51 = load i32, ptr %18, align 4
  %52 = sub nsw i32 %50, %51
  store i32 %52, ptr %20, align 4
  %53 = getelementptr inbounds [4 x i32], ptr %17, i64 0, i64 3
  %54 = load i32, ptr %53, align 4
  %55 = load i32, ptr %19, align 4
  %56 = sub nsw i32 %54, %55
  store i32 %56, ptr %21, align 4
  %57 = load ptr, ptr %13, align 8
  %58 = ptrtoint ptr %57 to i64
  %59 = load i32, ptr %19, align 4
  %60 = sext i32 %59 to i64
  %61 = load i32, ptr %16, align 4
  %62 = sext i32 %61 to i64
  %63 = mul nsw i64 %60, %62
  %64 = load i32, ptr %18, align 4
  %65 = sext i32 %64 to i64
  %66 = mul nsw i64 %65, 1
  %67 = add nsw i64 %63, %66
  %68 = add nsw i64 %58, %67
  %69 = inttoptr i64 %68 to ptr
  store ptr %69, ptr %22, align 8
  br label %70

70:                                               ; preds = %100, %44
  store i32 0, ptr %23, align 4
  br label %71

71:                                               ; preds = %90, %70
  %72 = load i32, ptr %23, align 4
  %73 = load i32, ptr %20, align 4
  %74 = icmp ult i32 %72, %73
  br i1 %74, label %75, label %93

75:                                               ; preds = %71
  %76 = load i32, ptr %10, align 4
  %77 = load i32, ptr %14, align 4
  %78 = xor i32 %76, %77
  %79 = load i32, ptr %15, align 4
  %80 = xor i32 %79, -1
  %81 = and i32 %78, %80
  %82 = load ptr, ptr %22, align 8
  %83 = load i32, ptr %23, align 4
  %84 = zext i32 %83 to i64
  %85 = getelementptr inbounds i8, ptr %82, i64 %84
  %86 = load i8, ptr %85, align 1
  %87 = sext i8 %86 to i32
  %88 = xor i32 %87, %81
  %89 = trunc i32 %88 to i8
  store i8 %89, ptr %85, align 1
  br label %90

90:                                               ; preds = %75
  %91 = load i32, ptr %23, align 4
  %92 = add i32 %91, 1
  store i32 %92, ptr %23, align 4
  br label %71, !llvm.loop !18

93:                                               ; preds = %71
  %94 = load ptr, ptr %22, align 8
  %95 = ptrtoint ptr %94 to i64
  %96 = load i32, ptr %16, align 4
  %97 = sext i32 %96 to i64
  %98 = add nsw i64 %95, %97
  %99 = inttoptr i64 %98 to ptr
  store ptr %99, ptr %22, align 8
  br label %100

100:                                              ; preds = %93
  %101 = load i32, ptr %21, align 4
  %102 = add i32 %101, -1
  store i32 %102, ptr %21, align 4
  %103 = icmp ugt i32 %102, 0
  br i1 %103, label %70, label %104, !llvm.loop !19

104:                                              ; preds = %100
  br label %36, !llvm.loop !20

105:                                              ; preds = %36
  ret void
}